target datalayout = "e-m:e-p270:32:32-p271:32:32-p272:64:64-i64:64-i128:128-f80:128-n8:16:32:64-S128"
target triple = "x86_64-unknown-linux-gnu"

%struct.QTailQLink = type { ptr, ptr }
%struct.Object = type { ptr, ptr, ptr, i32, ptr }
%struct.AHCIDevice = type { %struct.IDEDMA, %struct.IDEBus, i32, i32, i32, %struct.AHCIPortRegs, ptr, ptr, ptr, ptr, i8, i32, i8, ptr, [32 x %struct.NCQTransferState], %struct.MemReentrancyGuard }
%struct.IDEDMA = type { ptr, %struct.QEMUIOVector, ptr }
%struct.QEMUIOVector = type { ptr, i32, %union.anon.3 }
%union.anon.3 = type { %struct.anon.4 }
%struct.anon.4 = type { i32, %struct.iovec }
%struct.iovec = type { ptr, i64 }
%struct.IDEBus = type { %struct.BusState, ptr, ptr, [2 x %struct.IDEState], ptr, i32, i32, ptr, i8, i8, ptr, i32, i8, i64, i32, %struct.PortioList, %struct.PortioList, ptr }
%struct.BusState = type { %struct.Object, ptr, ptr, ptr, i32, i8, i8, i32, %union.BusChildHead, %struct.BusStateEntry, %struct.ResettableState }
%union.BusChildHead = type { %struct.QTailQLink }
%struct.BusStateEntry = type { ptr, ptr }
%struct.ResettableState = type { i32, i8, i8 }
%struct.IDEState = type { ptr, i8, i32, i32, i32, i32, i32, i32, i32, i64, i32, i32, [512 x i8], i32, [21 x i8], [41 x i8], i64, i8, i8, i32, i8, i8, i8, i8, i8, i8, i8, i8, i8, i8, i8, i8, i8, ptr, [9 x i8], %struct.unreported_events, i8, i8, i8, i8, i8, i32, i32, i32, i32, i32, i32, %struct.BlockAcctCookie, ptr, %struct.QEMUIOVector, %struct.anon.6, i64, i32, %struct.QEMUSGList, i32, ptr, ptr, ptr, ptr, i32, i32, i32, i8, ptr, i32, i8, i32, ptr, i32, i32, i8, i8, i32, i8, ptr, i32 }
%struct.unreported_events = type { i8, i8 }
%struct.BlockAcctCookie = type { i64, i64, i32 }
%struct.anon.6 = type { ptr }
%struct.QEMUSGList = type { ptr, i32, i32, i64, ptr, ptr }
%struct.PortioList = type { ptr, ptr, ptr, i32, ptr, ptr, ptr, i8 }
%struct.AHCIPortRegs = type { i32, i32, i32, i32, i32, i32, i32, i32, i32, i32, i32, i32, i32, i32, i32, i32 }
%struct.NCQTransferState = type { ptr, ptr, ptr, %struct.QEMUSGList, %struct.BlockAcctCookie, i32, i64, i8, i8, i8, i8, i8 }
%struct.MemReentrancyGuard = type { i8 }
%struct.timeval = type { i64, i64 }

@trace_events_enabled_count = external global i32, align 4
@message_with_timestamp = external global i8, align 1
@qemu_loglevel = external global i32, align 4
@_TRACE_AHCI_SET_SIGNATURE_DSTATE = external global i16, align 2
@.str.193 = private unnamed_addr constant [137 x i8] c"%d@%zu.%06zu:ahci_set_signature ahci(%p)[%d]: set signature sector:0x%02x nsector:0x%02x lcyl:0x%02x hcyl:0x%02x (cumulatively: 0x%08x)\0A\00", align 1
@.str.194 = private unnamed_addr constant [124 x i8] c"ahci_set_signature ahci(%p)[%d]: set signature sector:0x%02x nsector:0x%02x lcyl:0x%02x hcyl:0x%02x (cumulatively: 0x%08x)\0A\00", align 1

; Function Attrs: nounwind sspstrong uwtable
define internal zeroext i1 @qemu_loglevel_mask(i32 noundef %mask) #0 {
entry:
  %mask.addr = alloca i32, align 4
  store i32 %mask, ptr %mask.addr, align 4
  %0 = load i32, ptr @qemu_loglevel, align 4
  %1 = load i32, ptr %mask.addr, align 4
  %and = and i32 %0, %1
  %cmp = icmp ne i32 %and, 0
  ret i1 %cmp
}

; Function Attrs: nounwind sspstrong uwtable
define internal void @_nocheck__trace_ahci_set_signature(ptr noundef %s, i32 noundef %port, i8 noundef zeroext %nsector, i8 noundef zeroext %sector, i8 noundef zeroext %lcyl, i8 noundef zeroext %hcyl, i32 noundef %sig) #0 {
entry:
  %s.addr = alloca ptr, align 8
  %port.addr = alloca i32, align 4
  %nsector.addr = alloca i8, align 1
  %sector.addr = alloca i8, align 1
  %lcyl.addr = alloca i8, align 1
  %hcyl.addr = alloca i8, align 1
  %sig.addr = alloca i32, align 4
  %_now = alloca %struct.timeval, align 8
  store ptr %s, ptr %s.addr, align 8
  store i32 %port, ptr %port.addr, align 4
  store i8 %nsector, ptr %nsector.addr, align 1
  store i8 %sector, ptr %sector.addr, align 1
  store i8 %lcyl, ptr %lcyl.addr, align 1
  store i8 %hcyl, ptr %hcyl.addr, align 1
  store i32 %sig, ptr %sig.addr, align 4
  %0 = load i32, ptr @trace_events_enabled_count, align 4
  %tobool = icmp ne i32 %0, 0
  %lnot = xor i1 %tobool, true
  %lnot1 = xor i1 %lnot, true
  %lnot.ext = zext i1 %lnot1 to i32
  %conv = sext i32 %lnot.ext to i64
  %tobool2 = icmp ne i64 %conv, 0
  br i1 %tobool2, label %land.lhs.true, label %if.end19

land.lhs.true:                                    ; preds = %entry
  %1 = load i16, ptr @_TRACE_AHCI_SET_SIGNATURE_DSTATE, align 2
  %conv3 = zext i16 %1 to i32
  %tobool4 = icmp ne i32 %conv3, 0
  br i1 %tobool4, label %land.lhs.true5, label %if.end19

land.lhs.true5:                                   ; preds = %land.lhs.true
  %call = call zeroext i1 @qemu_loglevel_mask(i32 noundef 32768)
  br i1 %call, label %if.then, label %if.end19

if.then:                                          ; preds = %land.lhs.true5
  %2 = load i8, ptr @message_with_timestamp, align 1
  %tobool7 = trunc i8 %2 to i1
  br i1 %tobool7, label %if.then8, label %if.else

if.then8:                                         ; preds = %if.then
  %call9 = call i32 @gettimeofday(ptr noundef %_now, ptr noundef null) #10
  %call10 = call i32 @qemu_get_thread_id()
  %tv_sec = getelementptr inbounds %struct.timeval, ptr %_now, i32 0, i32 0
  %3 = load i64, ptr %tv_sec, align 8
  %tv_usec = getelementptr inbounds %struct.timeval, ptr %_now, i32 0, i32 1
  %4 = load i64, ptr %tv_usec, align 8
  %5 = load ptr, ptr %s.addr, align 8
  %6 = load i32, ptr %port.addr, align 4
  %7 = load i8, ptr %nsector.addr, align 1
  %conv11 = zext i8 %7 to i32
  %8 = load i8, ptr %sector.addr, align 1
  %conv12 = zext i8 %8 to i32
  %9 = load i8, ptr %lcyl.addr, align 1
  %conv13 = zext i8 %9 to i32
  %10 = load i8, ptr %hcyl.addr, align 1
  %conv14 = zext i8 %10 to i32
  %11 = load i32, ptr %sig.addr, align 4
  call void (ptr, ...) @qemu_log(ptr noundef @.str.193, i32 noundef %call10, i64 noundef %3, i64 noundef %4, ptr noundef %5, i32 noundef %6, i32 noundef %conv11, i32 noundef %conv12, i32 noundef %conv13, i32 noundef %conv14, i32 noundef %11)
  br label %if.end

if.else:                                          ; preds = %if.then
  %12 = load ptr, ptr %s.addr, align 8
  %13 = load i32, ptr %port.addr, align 4
  %14 = load i8, ptr %nsector.addr, align 1
  %conv15 = zext i8 %14 to i32
  %15 = load i8, ptr %sector.addr, align 1
  %conv16 = zext i8 %15 to i32
  %16 = load i8, ptr %lcyl.addr, align 1
  %conv17 = zext i8 %16 to i32
  %17 = load i8, ptr %hcyl.addr, align 1
  %conv18 = zext i8 %17 to i32
  %18 = load i32, ptr %sig.addr, align 4
  call void (ptr, ...) @qemu_log(ptr noundef @.str.194, ptr noundef %12, i32 noundef %13, i32 noundef %conv15, i32 noundef %conv16, i32 noundef %conv17, i32 noundef %conv18, i32 noundef %18)
  br label %if.end

if.end:                                           ; preds = %if.else, %if.then8
  br label %if.end19

if.end19:                                         ; preds = %if.end, %land.lhs.true5, %land.lhs.true, %entry
  ret void
}

; Function Attrs: nounwind sspstrong uwtable
define internal void @trace_ahci_set_signature(ptr noundef %s, i32 noundef %port, i8 noundef zeroext %nsector, i8 noundef zeroext %sector, i8 noundef zeroext %lcyl, i8 noundef zeroext %hcyl, i32 noundef %sig) #0 {
entry:
  %s.addr = alloca ptr, align 8
  %port.addr = alloca i32, align 4
  %nsector.addr = alloca i8, align 1
  %sector.addr = alloca i8, align 1
  %lcyl.addr = alloca i8, align 1
  %hcyl.addr = alloca i8, align 1
  %sig.addr = alloca i32, align 4
  store ptr %s, ptr %s.addr, align 8
  store i32 %port, ptr %port.addr, align 4
  store i8 %nsector, ptr %nsector.addr, align 1
  store i8 %sector, ptr %sector.addr, align 1
  store i8 %lcyl, ptr %lcyl.addr, align 1
  store i8 %hcyl, ptr %hcyl.addr, align 1
  store i32 %sig, ptr %sig.addr, align 4
  %0 = load ptr, ptr %s.addr, align 8
  %1 = load i32, ptr %port.addr, align 4
  %2 = load i8, ptr %nsector.addr, align 1
  %3 = load i8, ptr %sector.addr, align 1
  %4 = load i8, ptr %lcyl.addr, align 1
  %5 = load i8, ptr %hcyl.addr, align 1
  %6 = load i32, ptr %sig.addr, align 4
  call void @_nocheck__trace_ahci_set_signature(ptr noundef %0, i32 noundef %1, i8 noundef zeroext %2, i8 noundef zeroext %3, i8 noundef zeroext %4, i8 noundef zeroext %5, i32 noundef %6)
  ret void
}

; Function Attrs: nounwind sspstrong uwtable
define internal void @ahci_set_signature(ptr noundef %ad, i32 noundef %sig) #0 {
entry:
  %ad.addr = alloca ptr, align 8
  %sig.addr = alloca i32, align 4
  %s = alloca ptr, align 8
  store ptr %ad, ptr %ad.addr, align 8
  store i32 %sig, ptr %sig.addr, align 4
  %0 = load ptr, ptr %ad.addr, align 8
  %port = getelementptr inbounds %struct.AHCIDevice, ptr %0, i32 0, i32 1
  %ifs = getelementptr inbounds %struct.IDEBus, ptr %port, i32 0, i32 3
  %arrayidx = getelementptr [2 x %struct.IDEState], ptr %ifs, i64 0, i64 0
  store ptr %arrayidx, ptr %s, align 8
  %1 = load i32, ptr %sig.addr, align 4
  %shr = lshr i32 %1, 24
  %and = and i32 %shr, 255
  %conv = trunc i32 %and to i8
  %2 = load ptr, ptr %s, align 8
  %hcyl = getelementptr inbounds %struct.IDEState, ptr %2, i32 0, i32 22
  store i8 %conv, ptr %hcyl, align 2
  %3 = load i32, ptr %sig.addr, align 4
  %shr1 = lshr i32 %3, 16
  %and2 = and i32 %shr1, 255
  %conv3 = trunc i32 %and2 to i8
  %4 = load ptr, ptr %s, align 8
  %lcyl = getelementptr inbounds %struct.IDEState, ptr %4, i32 0, i32 21
  store i8 %conv3, ptr %lcyl, align 1
  %5 = load i32, ptr %sig.addr, align 4
  %shr4 = lshr i32 %5, 8
  %and5 = and i32 %shr4, 255
  %conv6 = trunc i32 %and5 to i8
  %6 = load ptr, ptr %s, align 8
  %sector = getelementptr inbounds %struct.IDEState, ptr %6, i32 0, i32 20
  store i8 %conv6, ptr %sector, align 8
  %7 = load i32, ptr %sig.addr, align 4
  %and7 = and i32 %7, 255
  %8 = load ptr, ptr %s, align 8
  %nsector = getelementptr inbounds %struct.IDEState, ptr %8, i32 0, i32 19
  store i32 %and7, ptr %nsector, align 4
  %9 = load ptr, ptr %ad.addr, align 8
  %hba = getelementptr inbounds %struct.AHCIDevice, ptr %9, i32 0, i32 6
  %10 = load ptr, ptr %hba, align 8
  %11 = load ptr, ptr %ad.addr, align 8
  %port_no = getelementptr inbounds %struct.AHCIDevice, ptr %11, i32 0, i32 2
  %12 = load i32, ptr %port_no, align 8
  %13 = load ptr, ptr %s, align 8
  %nsector8 = getelementptr inbounds %struct.IDEState, ptr %13, i32 0, i32 19
  %14 = load i32, ptr %nsector8, align 4
  %conv9 = trunc i32 %14 to i8
  %15 = load ptr, ptr %s, align 8
  %sector10 = getelementptr inbounds %struct.IDEState, ptr %15, i32 0, i32 20
  %16 = load i8, ptr %sector10, align 8
  %17 = load ptr, ptr %s, align 8
  %lcyl11 = getelementptr inbounds %struct.IDEState, ptr %17, i32 0, i32 21
  %18 = load i8, ptr %lcyl11, align 1
  %19 = load ptr, ptr %s, align 8
  %hcyl12 = getelementptr inbounds %struct.IDEState, ptr %19, i32 0, i32 22
  %20 = load i8, ptr %hcyl12, align 2
  %21 = load i32, ptr %sig.addr, align 4
  call void @trace_ahci_set_signature(ptr noundef %10, i32 noundef %12, i8 noundef zeroext %conv9, i8 noundef zeroext %16, i8 noundef zeroext %18, i8 noundef zeroext %20, i32 noundef %21)
  ret void
}