; Function Attrs: nounwind sspstrong uwtable
define internal fastcc void @ahci_set_signature(ptr noundef captures(none) initializes((844, 851)) %ad, i32 noundef range(i32 -351010559, 258) %sig) unnamed_addr #0 {
entry:
  %_now.i.i = alloca %struct.timeval, align 8
  %shr = lshr i32 %sig, 24
  %conv = trunc nuw i32 %shr to i8
  %hcyl = getelementptr inbounds nuw i8, ptr %ad, i64 850
  store i8 %conv, ptr %hcyl, align 2
  %shr1 = lshr i32 %sig, 16
  %conv3 = trunc i32 %shr1 to i8
  %lcyl = getelementptr inbounds nuw i8, ptr %ad, i64 849
  store i8 %conv3, ptr %lcyl, align 1
  %shr4 = lshr i32 %sig, 8
  %conv6 = trunc i32 %shr4 to i8
  %sector = getelementptr inbounds nuw i8, ptr %ad, i64 848
  store i8 %conv6, ptr %sector, align 8
  %and7 = and i32 %sig, 255
  %nsector = getelementptr inbounds nuw i8, ptr %ad, i64 844
  store i32 %and7, ptr %nsector, align 4
  %hba = getelementptr inbounds nuw i8, ptr %ad, i64 2440
  %0 = load ptr, ptr %hba, align 8
  %port_no = getelementptr inbounds nuw i8, ptr %ad, i64 2360
  %1 = load i32, ptr %port_no, align 8
  call void @llvm.lifetime.start.p0(i64 16, ptr nonnull %_now.i.i)
  %2 = load i32, ptr @trace_events_enabled_count, align 4
  %tobool.i.i = icmp ne i32 %2, 0
  %3 = load i16, ptr @_TRACE_AHCI_SET_SIGNATURE_DSTATE, align 2
  %tobool4.i.i = icmp ne i16 %3, 0
  %or.cond.i.i = select i1 %tobool.i.i, i1 %tobool4.i.i, i1 false
  br i1 %or.cond.i.i, label %land.lhs.true5.i.i, label %trace_ahci_set_signature.exit

land.lhs.true5.i.i:                               ; preds = %entry
  %4 = load i32, ptr @qemu_loglevel, align 4
  %and.i.i.i = and i32 %4, 32768
  %cmp.i.not.i.i = icmp eq i32 %and.i.i.i, 0
  br i1 %cmp.i.not.i.i, label %trace_ahci_set_signature.exit, label %if.then.i.i

if.then.i.i:                                      ; preds = %land.lhs.true5.i.i
  %5 = load i8, ptr @message_with_timestamp, align 1
  %tobool7.i.i = trunc i8 %5 to i1
  br i1 %tobool7.i.i, label %if.then8.i.i, label %if.else.i.i

if.then8.i.i:                                     ; preds = %if.then.i.i
  %call9.i.i = call i32 @gettimeofday(ptr noundef nonnull %_now.i.i, ptr noundef null) #12
  %call10.i.i = tail call i32 @qemu_get_thread_id() #12
  %6 = load i64, ptr %_now.i.i, align 8
  %tv_usec.i.i = getelementptr inbounds nuw i8, ptr %_now.i.i, i64 8
  %7 = load i64, ptr %tv_usec.i.i, align 8
  %conv12.i.i = and i32 %shr4, 255
  %conv13.i.i = and i32 %shr1, 255
  tail call void (ptr, ...) @qemu_log(ptr noundef nonnull @.str.193, i32 noundef %call10.i.i, i64 noundef %6, i64 noundef %7, ptr noundef %0, i32 noundef %1, i32 noundef %and7, i32 noundef %conv12.i.i, i32 noundef %conv13.i.i, i32 noundef %shr, i32 noundef range(i32 -351010559, 258) %sig) #12
  br label %trace_ahci_set_signature.exit

if.else.i.i:                                      ; preds = %if.then.i.i
  %conv16.i.i = and i32 %shr4, 255
  %conv17.i.i = and i32 %shr1, 255
  tail call void (ptr, ...) @qemu_log(ptr noundef nonnull @.str.194, ptr noundef %0, i32 noundef %1, i32 noundef %and7, i32 noundef %conv16.i.i, i32 noundef %conv17.i.i, i32 noundef %shr, i32 noundef range(i32 -351010559, 258) %sig) #12
  br label %trace_ahci_set_signature.exit

trace_ahci_set_signature.exit:                    ; preds = %entry, %land.lhs.true5.i.i, %if.then8.i.i, %if.else.i.i
  call void @llvm.lifetime.end.p0(i64 16, ptr nonnull %_now.i.i)
  ret void
}